target datalayout = "e-m:e-p270:32:32-p271:32:32-p272:64:64-i64:64-i128:128-f80:128-n8:16:32:64-S128"
target triple = "x86_64-pc-linux-gnu"

%struct.H5P_genclass_t = type { ptr, ptr, i32, i64, i32, i32, i32, i8, i32, ptr, ptr, ptr, ptr, ptr, ptr, ptr }
%struct.H5P_iter_pclass_ud_t = type { ptr, ptr, ptr, i32 }

@H5P_init_g = external global i8, align 1
@H5_libterm_g = external global i8, align 1

; Function Attrs: nounwind uwtable
define i32 @H5P__iterate_pclass(ptr noundef %0, ptr noundef %1, ptr noundef %2, ptr noundef %3) #0 {
  %5 = alloca ptr, align 8
  %6 = alloca ptr, align 8
  %7 = alloca ptr, align 8
  %8 = alloca ptr, align 8
  %9 = alloca %struct.H5P_iter_pclass_ud_t, align 8
  %10 = alloca i32, align 4
  %11 = alloca i32, align 4
  store ptr %0, ptr %5, align 8, !tbaa !22
  store ptr %1, ptr %6, align 8, !tbaa !113
  store ptr %2, ptr %7, align 8, !tbaa !40
  store ptr %3, ptr %8, align 8, !tbaa !40
  call void @llvm.lifetime.start.p0(i64 32, ptr %9) #8
  call void @llvm.lifetime.start.p0(i64 4, ptr %10) #8
  store i32 0, ptr %10, align 4, !tbaa !3
  call void @llvm.lifetime.start.p0(i64 4, ptr %11) #8
  store i32 0, ptr %11, align 4, !tbaa !3
  %12 = load i8, ptr @H5P_init_g, align 1, !tbaa !7, !range !9, !noundef !10
  %13 = trunc i8 %12 to i1
  br i1 %13, label %18, label %14

14:                                               ; preds = %4
  %15 = load i8, ptr @H5_libterm_g, align 1, !tbaa !7, !range !9, !noundef !10
  %16 = trunc i8 %15 to i1
  %17 = xor i1 %16, true
  br label %18

18:                                               ; preds = %14, %4
  %19 = phi i1 [ true, %4 ], [ %17, %14 ]
  %20 = xor i1 %19, true
  %21 = xor i1 %20, true
  %22 = zext i1 %21 to i32
  %23 = sext i32 %22 to i64
  %24 = call i64 @llvm.expect.i64(i64 %23, i64 1)
  %25 = icmp ne i64 %24, 0
  br i1 %25, label %26, label %50

26:                                               ; preds = %18
  %27 = load ptr, ptr %7, align 8, !tbaa !40
  %28 = getelementptr inbounds nuw %struct.H5P_iter_pclass_ud_t, ptr %9, i32 0, i32 0
  store ptr %27, ptr %28, align 8, !tbaa !127
  %29 = load ptr, ptr %8, align 8, !tbaa !40
  %30 = getelementptr inbounds nuw %struct.H5P_iter_pclass_ud_t, ptr %9, i32 0, i32 1
  store ptr %29, ptr %30, align 8, !tbaa !129
  %31 = getelementptr inbounds nuw %struct.H5P_iter_pclass_ud_t, ptr %9, i32 0, i32 2
  store ptr %10, ptr %31, align 8, !tbaa !130
  %32 = load ptr, ptr %6, align 8, !tbaa !113
  %33 = load i32, ptr %32, align 4, !tbaa !3
  %34 = getelementptr inbounds nuw %struct.H5P_iter_pclass_ud_t, ptr %9, i32 0, i32 3
  store i32 %33, ptr %34, align 8, !tbaa !131
  %35 = load ptr, ptr %5, align 8, !tbaa !22
  %36 = getelementptr inbounds nuw %struct.H5P_genclass_t, ptr %35, i32 0, i32 9
  %37 = load ptr, ptr %36, align 8, !tbaa !52
  %38 = call i32 @H5SL_iterate(ptr noundef %37, ptr noundef @H5P__iterate_pclass_cb, ptr noundef %9)
  store i32 %38, ptr %11, align 4, !tbaa !3
  %39 = load i32, ptr %11, align 4, !tbaa !3
  %40 = icmp ne i32 %39, 0
  br i1 %40, label %41, label %46

41:                                               ; preds = %26
  br label %42

42:                                               ; preds = %41
  %43 = load i32, ptr %11, align 4, !tbaa !3
  store i32 %43, ptr %11, align 4, !tbaa !3
  br label %47

44:                                               ; No predecessors!
  br label %45

45:                                               ; preds = %44
  br label %46

46:                                               ; preds = %45, %26
  br label %47

47:                                               ; preds = %46, %42
  %48 = load i32, ptr %10, align 4, !tbaa !3
  %49 = load ptr, ptr %6, align 8, !tbaa !113
  store i32 %48, ptr %49, align 4, !tbaa !3
  br label %50

50:                                               ; preds = %47, %18
  %51 = load i32, ptr %11, align 4, !tbaa !3
  call void @llvm.lifetime.end.p0(i64 4, ptr %11) #8
  call void @llvm.lifetime.end.p0(i64 4, ptr %10) #8
  call void @llvm.lifetime.end.p0(i64 32, ptr %9) #8
  ret i32 %51
}