; Function Attrs: nounwind uwtable
define i32 @H5P__iterate_pclass(ptr noundef readonly captures(none) %0, ptr noundef captures(none) %1, ptr noundef %2, ptr noundef %3) local_unnamed_addr #0 {
  %5 = alloca %struct.H5P_iter_pclass_ud_t, align 8
  %6 = alloca i32, align 4
  call void @llvm.lifetime.start.p0(i64 32, ptr nonnull %5) #14
  call void @llvm.lifetime.start.p0(i64 4, ptr nonnull %6) #14
  store i32 0, ptr %6, align 4, !tbaa !45
  %7 = load i8, ptr @H5P_init_g, align 1, !tbaa !3, !range !7, !noundef !8
  %8 = trunc nuw i8 %7 to i1
  %9 = load i8, ptr @H5_libterm_g, align 1, !range !7
  %10 = trunc nuw i8 %9 to i1
  %11 = xor i1 %10, true
  %12 = select i1 %8, i1 true, i1 %11
  br i1 %12, label %13, label %22, !prof !9

13:                                               ; preds = %4
  store ptr %2, ptr %5, align 8, !tbaa !115
  %14 = getelementptr inbounds nuw i8, ptr %5, i64 8
  store ptr %3, ptr %14, align 8, !tbaa !117
  %15 = getelementptr inbounds nuw i8, ptr %5, i64 16
  store ptr %6, ptr %15, align 8, !tbaa !118
  %16 = load i32, ptr %1, align 4, !tbaa !45
  %17 = getelementptr inbounds nuw i8, ptr %5, i64 24
  store i32 %16, ptr %17, align 8, !tbaa !119
  %18 = getelementptr inbounds nuw i8, ptr %0, i64 56
  %19 = load ptr, ptr %18, align 8, !tbaa !47
  %20 = call i32 @H5SL_iterate(ptr noundef %19, ptr noundef nonnull @H5P__iterate_pclass_cb, ptr noundef nonnull %5) #14
  %21 = load i32, ptr %6, align 4, !tbaa !45
  store i32 %21, ptr %1, align 4, !tbaa !45
  br label %22

22:                                               ; preds = %13, %4
  %.0 = phi i32 [ %20, %13 ], [ 0, %4 ]
  call void @llvm.lifetime.end.p0(i64 4, ptr nonnull %6) #14
  call void @llvm.lifetime.end.p0(i64 32, ptr nonnull %5) #14
  ret i32 %.0
}